; Function Attrs: nounwind uwtable
define hidden i32 @SDL_GetNumJoystickHats_REAL(ptr noundef %0) local_unnamed_addr #1 {
  %2 = tail call i32 @SDL_AddAtomicInt_REAL(ptr noundef nonnull @SDL_joystick_lock_pending, i32 noundef 1) #13
  %3 = load ptr, ptr @SDL_joystick_lock, align 8
  tail call void @SDL_LockMutex_REAL(ptr noundef %3) #13
  %4 = tail call i32 @SDL_AddAtomicInt_REAL(ptr noundef nonnull @SDL_joystick_lock_pending, i32 noundef -1) #13
  %5 = load i32, ptr @SDL_joysticks_locked, align 4
  %6 = add nsw i32 %5, 1
  store i32 %6, ptr @SDL_joysticks_locked, align 4
  %7 = tail call zeroext i1 @SDL_ObjectValid(ptr noundef %0, i32 noundef 4) #13
  br i1 %7, label %20, label %8

8:                                                ; preds = %1
  %9 = tail call zeroext i1 (ptr, ...) @SDL_SetError_REAL(ptr noundef nonnull @.str.2, ptr noundef nonnull @.str.3) #13
  %10 = load i32, ptr @SDL_joysticks_locked, align 4
  %11 = add nsw i32 %10, -1
  store i32 %11, ptr @SDL_joysticks_locked, align 4
  %.b4.i = load i1, ptr @SDL_joysticks_initialized, align 1
  %12 = icmp ne i32 %11, 0
  %or.cond.i = select i1 %.b4.i, i1 true, i1 %12
  br i1 %or.cond.i, label %.critedge.i, label %13

13:                                               ; preds = %8
  %14 = tail call i32 @SDL_GetAtomicInt_REAL(ptr noundef nonnull @SDL_joystick_lock_pending) #13
  %15 = icmp eq i32 %14, 0
  br i1 %15, label %16, label %.critedge.i

16:                                               ; preds = %13
  %17 = load ptr, ptr @SDL_joystick_lock, align 8
  tail call void @SDL_LockMutex_REAL(ptr noundef %17) #13
  %18 = load ptr, ptr @SDL_joystick_lock, align 8
  tail call void @SDL_UnlockMutex_REAL(ptr noundef %18) #13
  store ptr null, ptr @SDL_joystick_lock, align 8
  tail call void @SDL_UnlockMutex_REAL(ptr noundef %17) #13
  tail call void @SDL_DestroyMutex_REAL(ptr noundef %17) #13
  br label %SDL_UnlockJoysticks_REAL.exit

.critedge.i:                                      ; preds = %13, %8
  %19 = load ptr, ptr @SDL_joystick_lock, align 8
  tail call void @SDL_UnlockMutex_REAL(ptr noundef %19) #13
  br label %SDL_UnlockJoysticks_REAL.exit

20:                                               ; preds = %1
  %21 = getelementptr inbounds nuw i8, ptr %0, i64 96
  %22 = load i32, ptr %21, align 8
  %23 = load i32, ptr @SDL_joysticks_locked, align 4
  %24 = add nsw i32 %23, -1
  store i32 %24, ptr @SDL_joysticks_locked, align 4
  %.b4.i3 = load i1, ptr @SDL_joysticks_initialized, align 1
  %25 = icmp ne i32 %24, 0
  %or.cond.i4 = select i1 %.b4.i3, i1 true, i1 %25
  br i1 %or.cond.i4, label %.critedge.i5, label %26

26:                                               ; preds = %20
  %27 = tail call i32 @SDL_GetAtomicInt_REAL(ptr noundef nonnull @SDL_joystick_lock_pending) #13
  %28 = icmp eq i32 %27, 0
  br i1 %28, label %29, label %.critedge.i5

29:                                               ; preds = %26
  %30 = load ptr, ptr @SDL_joystick_lock, align 8
  tail call void @SDL_LockMutex_REAL(ptr noundef %30) #13
  %31 = load ptr, ptr @SDL_joystick_lock, align 8
  tail call void @SDL_UnlockMutex_REAL(ptr noundef %31) #13
  store ptr null, ptr @SDL_joystick_lock, align 8
  tail call void @SDL_UnlockMutex_REAL(ptr noundef %30) #13
  tail call void @SDL_DestroyMutex_REAL(ptr noundef %30) #13
  br label %SDL_UnlockJoysticks_REAL.exit

.critedge.i5:                                     ; preds = %26, %20
  %32 = load ptr, ptr @SDL_joystick_lock, align 8
  tail call void @SDL_UnlockMutex_REAL(ptr noundef %32) #13
  br label %SDL_UnlockJoysticks_REAL.exit

SDL_UnlockJoysticks_REAL.exit:                    ; preds = %.critedge.i5, %29, %.critedge.i, %16
  %.0 = phi i32 [ -1, %16 ], [ -1, %.critedge.i ], [ %22, %29 ], [ %22, %.critedge.i5 ]
  ret i32 %.0
}